	.file	"mutex.c"
	.text
.Ltext0:
	.file 0 "/home/camdenpina/Music/ModernOS/arch/x86_64/kernel" "mutex.c"
	.type	spinlock_enter, @function
spinlock_enter:
.LFB0:
	.file 1 "mutex.c"
	.loc 1 31 37
	.cfi_startproc
	pushq	%rbp
	.cfi_def_cfa_offset 16
	.cfi_offset 6, -16
	movq	%rsp, %rbp
	.cfi_def_cfa_register 6
	pushq	%rbx
	subq	$8, %rsp
	.cfi_offset 3, -24
.LBB2:
	.loc 1 32 72
/APP
# 32 "mutex.c" 1
	mov %rax, gs:$24
# 0 "" 2
/NO_APP
	movq	%rax, %rbx
	.loc 1 32 12
	movq	%rbx, %rax
.LBE2:
	.loc 1 32 21
	testq	%rax, %rax
	setne	%al
	.loc 1 32 9
	movzbl	%al, %eax
	.loc 1 32 8 discriminator 1
	testq	%rax, %rax
	je	.L2
.LBB3:
	.loc 1 33 74
/APP
# 33 "mutex.c" 1
	mov %rax, gs:$24
# 0 "" 2
/NO_APP
	movq	%rax, %rbx
	.loc 1 33 12
	movq	%rbx, %rax
.LBE3:
	.loc 1 33 28
	addq	$64, %rax
	.loc 1 33 9
	lock addl	$1, (%rax)
.L2:
	.loc 1 35 5
	movabsq	$critical_enter, %rax
	call	*%rax
.LVL0:
	.loc 1 36 1
	nop
	movq	-8(%rbp), %rbx
	leave
	.cfi_restore 6
	.cfi_restore 3
	.cfi_def_cfa 7, 8
	ret
	.cfi_endproc
.LFE0:
	.size	spinlock_enter, .-spinlock_enter
	.section	.rodata
.LC0:
	.string	"mutex.c"
	.align 8
.LC1:
	.string	"assertion failed: spinlock_exit() with no spin locks held, file %s, line %d"
	.text
	.type	spinlock_exit, @function
spinlock_exit:
.LFB1:
	.loc 1 38 36
	.cfi_startproc
	pushq	%rbp
	.cfi_def_cfa_offset 16
	.cfi_offset 6, -16
	movq	%rsp, %rbp
	.cfi_def_cfa_register 6
	pushq	%rbx
	subq	$8, %rsp
	.cfi_offset 3, -24
.LBB4:
	.loc 1 39 72
/APP
# 39 "mutex.c" 1
	mov %rax, gs:$24
# 0 "" 2
/NO_APP
	movq	%rax, %rbx
	.loc 1 39 12
	movq	%rbx, %rax
.LBE4:
	.loc 1 39 21
	testq	%rax, %rax
	setne	%al
	.loc 1 39 9
	movzbl	%al, %eax
	.loc 1 39 8 discriminator 1
	testq	%rax, %rax
	je	.L4
.LBB5:
	.loc 1 40 60
/APP
# 40 "mutex.c" 1
	mov %rax, gs:$24
# 0 "" 2
/NO_APP
	movq	%rax, %rbx
	.loc 1 40 12
	movq	%rbx, %rax
.LBE5:
	.loc 1 40 20
	movl	64(%rax), %eax
	.loc 1 40 12
	testl	%eax, %eax
	jg	.L5
	.loc 1 40 39 discriminator 1
	movl	$40, %edx
	movabsq	$.LC0, %rax
	movq	%rax, %rsi
	movabsq	$.LC1, %rax
	movq	%rax, %rdi
	movl	$0, %eax
	movabsq	$panic, %rcx
	call	*%rcx
.LVL1:
.L5:
.LBB6:
	.loc 1 41 74
/APP
# 41 "mutex.c" 1
	mov %rax, gs:$24
# 0 "" 2
/NO_APP
	movq	%rax, %rbx
	.loc 1 41 12
	movq	%rbx, %rax
.LBE6:
	.loc 1 41 28
	addq	$64, %rax
	.loc 1 41 9
	lock subl	$1, (%rax)
.L4:
	.loc 1 43 5
	movabsq	$critical_exit, %rax
	call	*%rax
.LVL2:
	.loc 1 44 1
	nop
	movq	-8(%rbp), %rbx
	leave
	.cfi_restore 6
	.cfi_restore 3
	.cfi_def_cfa 7, 8
	ret
	.cfi_endproc
.LFE1:
	.size	spinlock_exit, .-spinlock_exit
	.globl	_mtx_opts_to_lockobject_flags
	.type	_mtx_opts_to_lockobject_flags, @function
_mtx_opts_to_lockobject_flags:
.LFB2:
	.loc 1 46 55
	.cfi_startproc
	pushq	%rbp
	.cfi_def_cfa_offset 16
	.cfi_offset 6, -16
	movq	%rsp, %rbp
	.cfi_def_cfa_register 6
	subq	$24, %rsp
	movl	%edi, -20(%rbp)
	.loc 1 47 14
	movl	$4096, -4(%rbp)
	.loc 1 49 14
	movl	-20(%rbp), %eax
	andl	$1, %eax
	.loc 1 49 8
	testl	%eax, %eax
	je	.L7
	.loc 1 50 15
	orl	$1, -4(%rbp)
	.loc 1 51 14
	andl	$-5, -20(%rbp)
	jmp	.L8
.L7:
	.loc 1 53 15
	orl	$2, -4(%rbp)
.L8:
	.loc 1 56 34
	movl	-20(%rbp), %eax
	sall	$7, %eax
	andl	$256, %eax
	.loc 1 56 11
	orl	%eax, -4(%rbp)
	.loc 1 57 34
	movl	-20(%rbp), %eax
	sall	$6, %eax
	andl	$512, %eax
	.loc 1 57 11
	orl	%eax, -4(%rbp)
	.loc 1 58 34
	movl	-20(%rbp), %eax
	sall	$8, %eax
	andl	$1024, %eax
	.loc 1 58 11
	orl	%eax, -4(%rbp)
	.loc 1 60 12
	movl	-4(%rbp), %eax
	.loc 1 61 1
	leave
	.cfi_restore 6
	.cfi_def_cfa 7, 8
	ret
	.cfi_endproc
.LFE2:
	.size	_mtx_opts_to_lockobject_flags, .-_mtx_opts_to_lockobject_flags
	.globl	_mtx_init
	.type	_mtx_init, @function
_mtx_init:
.LFB3:
	.loc 1 63 61
	.cfi_startproc
	pushq	%rbp
	.cfi_def_cfa_offset 16
	.cfi_offset 6, -16
	movq	%rsp, %rbp
	.cfi_def_cfa_register 6
	subq	$24, %rsp
	movq	%rdi, -8(%rbp)
	movl	%esi, -12(%rbp)
	movq	%rdx, -24(%rbp)
	.loc 1 64 18
	movq	-8(%rbp), %rax
	movq	-24(%rbp), %rdx
	movq	%rdx, (%rax)
	.loc 1 65 21
	movl	-12(%rbp), %eax
	movl	%eax, %edi
	movabsq	$_mtx_opts_to_lockobject_flags, %rax
	call	*%rax
.LVL3:
	.loc 1 65 19 discriminator 1
	movq	-8(%rbp), %rdx
	movl	%eax, 8(%rdx)
	.loc 1 66 18
	movq	-8(%rbp), %rax
	movl	$0, 12(%rax)
	.loc 1 67 19
	movq	-8(%rbp), %rax
	movq	$0, 16(%rax)
	.loc 1 68 1
	nop
	leave
	.cfi_restore 6
	.cfi_def_cfa 7, 8
	ret
	.cfi_endproc
.LFE3:
	.size	_mtx_init, .-_mtx_init
	.section	.rodata
	.align 8
.LC2:
	.string	"assertion failed: _mtx_destroy() on locked mutex, file %s, line %d"
	.text
	.globl	_mtx_owner
	.type	_mtx_owner, @function
_mtx_owner:
.LFB4:
	.loc 1 70 34
	.cfi_startproc
	pushq	%rbp
	.cfi_def_cfa_offset 16
	.cfi_offset 6, -16
	movq	%rsp, %rbp
	.cfi_def_cfa_register 6
	subq	$32, %rsp
	movq	%rdi, -24(%rbp)
	.loc 1 71 15
	movq	-24(%rbp), %rax
	movq	16(%rax), %rax
	movq	%rax, -8(%rbp)
	.loc 1 72 8
	cmpq	$2, -8(%rbp)
	jne	.L12
	.loc 1 72 30 discriminator 1
	movl	$72, %edx
	movabsq	$.LC0, %rax
	movq	%rax, %rsi
	movabsq	$.LC2, %rax
	movq	%rax, %rdi
	movl	$0, %eax
	movabsq	$panic, %rcx
	call	*%rcx
.LVL4:
.L12:
	.loc 1 73 38
	movq	-8(%rbp), %rax
	andq	$-8, %rax
	.loc 1 74 1
	leave
	.cfi_restore 6
	.cfi_def_cfa 7, 8
	ret
	.cfi_endproc
.LFE4:
	.size	_mtx_owner, .-_mtx_owner
	.section	.rodata
	.align 8
.LC3:
	.string	"assertion failed: _mtx_spin_lock() on destroyed mutex, %s:%d, file %s, line %d"
	.align 8
.LC4:
	.string	"assertion failed: _mtx_spin_lock() on non-spin mutex, %s:%d, file %s, line %d"
	.align 8
.LC5:
	.string	"assertion failed: _mtx_wait_lock() on non-recursive mutex, %s:%d, file %s, line %d"
.LC6:
	.string	"spin mutex deadlock, %s:%d"
	.text
	.globl	_mtx_spin_lock
	.type	_mtx_spin_lock, @function
_mtx_spin_lock:
.LFB5:
	.loc 1 76 61
	.cfi_startproc
	pushq	%rbp
	.cfi_def_cfa_offset 16
	.cfi_offset 6, -16
	movq	%rsp, %rbp
	.cfi_def_cfa_register 6
	pushq	%rbx
	subq	$88, %rsp
	.cfi_offset 3, -24
	movq	%rdi, -72(%rbp)
	movq	%rsi, -80(%rbp)
	movl	%edx, -84(%rbp)
	.loc 1 77 42
	movq	-72(%rbp), %rax
	movq	16(%rax), %rax
	.loc 1 77 54
	andq	$-8, %rax
	.loc 1 77 13
	movq	%rax, -24(%rbp)
	.loc 1 78 12
	movq	-72(%rbp), %rax
	movq	16(%rax), %rax
	.loc 1 78 6
	cmpq	$2, %rax
	jne	.L15
	.loc 1 78 33 discriminator 1
	movl	-84(%rbp), %edx
	movq	-80(%rbp), %rax
	movl	$78, %r8d
	movabsq	$.LC0, %rcx
	movq	%rax, %rsi
	movabsq	$.LC3, %rax
	movq	%rax, %rdi
	movl	$0, %eax
	movabsq	$panic, %r9
	call	*%r9
.LVL5:
.L15:
	.loc 1 79 22
	movq	-72(%rbp), %rax
	movl	8(%rax), %eax
	.loc 1 79 30
	movzbl	%al, %eax
	.loc 1 79 6
	cmpl	$1, %eax
	je	.L16
	.loc 1 79 54 discriminator 1
	movl	-84(%rbp), %edx
	movq	-80(%rbp), %rax
	movl	$79, %r8d
	movabsq	$.LC0, %rcx
	movq	%rax, %rsi
	movabsq	$.LC4, %rax
	movq	%rax, %rdi
	movl	$0, %eax
	movabsq	$panic, %r9
	call	*%r9
.LVL6:
.L16:
	.loc 1 81 3
	movabsq	$spinlock_enter, %rax
	call	*%rax
.LVL7:
.LBB7:
	.loc 1 82 79
/APP
# 82 "mutex.c" 1
	mov %rax, gs:$40
# 0 "" 2
/NO_APP
	movq	%rax, %rbx
	.loc 1 82 6
	movq	%rbx, %rax
.LBE7:
	.loc 1 82 15
	testq	%rax, %rax
	setne	%al
	.loc 1 82 7
	movzbl	%al, %eax
	.loc 1 82 6 discriminator 1
	testq	%rax, %rax
	je	.L17
	.loc 1 82 9 discriminator 1
	movq	-72(%rbp), %rax
.LBB8:
	.loc 1 82 83 discriminator 1
/APP
# 82 "mutex.c" 1
	mov %rdx, gs:$40
# 0 "" 2
/NO_APP
	movq	%rdx, %rbx
	.loc 1 82 6 discriminator 1
	movq	%rbx, %rdx
.LBE8:
	.loc 1 82 9 discriminator 1
	movq	%rdx, %rdi
	movl	-84(%rbp), %ecx
	movq	-80(%rbp), %rdx
	movl	%ecx, %r8d
	movq	%rdx, %rcx
	movl	$0, %edx
	movq	%rax, %rsi
	movabsq	$lock_claim_list_add, %rax
	call	*%rax
.LVL8:
.L17:
.LBB9:
	.loc 1 84 52
/APP
# 84 "mutex.c" 1
	mov %rax, gs:$24
# 0 "" 2
/NO_APP
	movq	%rax, %rbx
	.loc 1 84 10
	movq	%rbx, %rax
.LBE9:
	.loc 1 84 6
	testq	%rax, %rax
	je	.L18
	.loc 1 84 48 discriminator 1
	movq	-72(%rbp), %rax
	movq	16(%rax), %rax
	.loc 1 84 60 discriminator 1
	andq	$-8, %rax
	.loc 1 84 28 discriminator 1
	movq	%rax, %rdx
.LBB10:
	.loc 1 84 118 discriminator 1
/APP
# 84 "mutex.c" 1
	mov %rax, gs:$24
# 0 "" 2
/NO_APP
	movq	%rax, %rbx
	.loc 1 84 53 discriminator 1
	movq	%rbx, %rax
.LBE10:
	.loc 1 84 24 discriminator 1
	cmpq	%rax, %rdx
	jne	.L18
	.loc 1 85 24
	movq	-72(%rbp), %rax
	movl	8(%rax), %eax
	.loc 1 85 42
	andl	$1024, %eax
	.loc 1 85 8
	testl	%eax, %eax
	jne	.L19
	.loc 1 85 53 discriminator 1
	movl	-84(%rbp), %edx
	movq	-80(%rbp), %rax
	movl	$85, %r8d
	movabsq	$.LC0, %rcx
	movq	%rax, %rsi
	movabsq	$.LC5, %rax
	movq	%rax, %rdi
	movl	$0, %eax
	movabsq	$panic, %r9
	call	*%r9
.LVL9:
.L19:
	.loc 1 87 8
	movq	-72(%rbp), %rax
	movq	16(%rax), %rax
	.loc 1 87 19
	orq	$4, %rax
	movq	%rax, %rdx
	movq	-72(%rbp), %rax
	movq	%rdx, 16(%rax)
	.loc 1 88 12
	movq	-72(%rbp), %rax
	movl	12(%rax), %eax
	.loc 1 88 17
	leal	1(%rax), %edx
	movq	-72(%rbp), %rax
	movl	%edx, 12(%rax)
.LBB11:
	.loc 1 89 50
/APP
# 89 "mutex.c" 1
	mov %rax, gs:$24
# 0 "" 2
/NO_APP
	movq	%rax, %rbx
	.loc 1 89 8
	movq	%rbx, %rax
.LBE11:
	.loc 1 89 16
	movl	60(%rax), %edx
	.loc 1 89 28
	addl	$1, %edx
	movl	%edx, 60(%rax)
	jmp	.L14
.L18:
	.loc 1 93 21
	movl	$100, -44(%rbp)
	movl	$-1, -40(%rbp)
	movl	$0, -36(%rbp)
.LBB12:
	.loc 1 94 82
/APP
# 94 "mutex.c" 1
	mov %rax, gs:$24
# 0 "" 2
/NO_APP
	movq	%rax, %rbx
	.loc 1 94 27
	movq	%rbx, %rax
.LBE12:
	.loc 1 94 13
	orq	$1, %rax
	movq	%rax, -32(%rbp)
.L26:
.LBB13:
	.loc 1 98 42
	movq	$0, -64(%rbp)
	.loc 1 98 86
	movq	-72(%rbp), %rax
	leaq	16(%rax), %rsi
	.loc 1 98 58
	leaq	-64(%rbp), %rdx
	movq	(%rdx), %rax
	movq	-32(%rbp), %rcx
	lock cmpxchgq	%rcx, (%rsi)
	movq	%rax, %rcx
	sete	%al
	testb	%al, %al
	jne	.L21
	movq	%rcx, (%rdx)
.L21:
.LBE13:
	.loc 1 98 8 discriminator 1
	testb	%al, %al
	jne	.L28
	.loc 1 101 11
	jmp	.L24
.L25:
	.loc 1 102 12
	leaq	-44(%rbp), %rax
	movq	%rax, %rdi
	movabsq	$spin_delay_wait, %rax
	call	*%rax
.LVL10:
	.loc 1 102 10 discriminator 1
	testl	%eax, %eax
	jne	.L24
	.loc 1 104 9
	movl	-84(%rbp), %edx
	movq	-80(%rbp), %rax
	movq	%rax, %rsi
	movabsq	$.LC6, %rax
	movq	%rax, %rdi
	movl	$0, %eax
	movabsq	$panic, %rcx
	call	*%rcx
.LVL11:
.L24:
	.loc 1 101 28
	movq	-72(%rbp), %rax
	addq	$16, %rax
	.loc 1 101 12
	movq	(%rax), %rax
	.loc 1 101 47 discriminator 1
	testq	%rax, %rax
	jne	.L25
	.loc 1 98 8
	jmp	.L26
.L28:
	.loc 1 99 7
	nop
	.loc 1 108 16
	movq	-72(%rbp), %rax
	movl	$1, 12(%rax)
.L14:
	.loc 1 109 1
	movq	-8(%rbp), %rbx
	leave
	.cfi_restore 6
	.cfi_restore 3
	.cfi_def_cfa 7, 8
	ret
	.cfi_endproc
.LFE5:
	.size	_mtx_spin_lock, .-_mtx_spin_lock
	.section	.rodata
	.align 8
.LC7:
	.string	"assertion failed: _mtx_spin_unlock() on destroyed mutex, file %s, line %d"
	.align 8
.LC8:
	.string	"assertion failed: _mtx_spin_unlock() on non-spin mutex, file %s, line %d"
	.align 8
.LC9:
	.string	"assertion failed: _mtx_spin_unlock() on unowned mutex, file %s, line %d"
	.align 8
.LC10:
	.string	"assertion failed: _mtx_spin_unlock() on non-recursive mutex, file %s, line %d"
	.align 8
.LC11:
	.string	"assertion failed: _mtx_spin_unlock() expected 0 count, got %d, file %s, line %d"
	.text
	.globl	_mtx_spin_unlock
	.type	_mtx_spin_unlock, @function
_mtx_spin_unlock:
.LFB6:
	.loc 1 111 63
	.cfi_startproc
	pushq	%rbp
	.cfi_def_cfa_offset 16
	.cfi_offset 6, -16
	movq	%rsp, %rbp
	.cfi_def_cfa_register 6
	pushq	%rbx
	subq	$56, %rsp
	.cfi_offset 3, -24
	movq	%rdi, -40(%rbp)
	movq	%rsi, -48(%rbp)
	movl	%edx, -52(%rbp)
	.loc 1 112 42
	movq	-40(%rbp), %rax
	movq	16(%rax), %rax
	.loc 1 112 54
	andq	$-8, %rax
	.loc 1 112 13
	movq	%rax, -24(%rbp)
	.loc 1 113 12
	movq	-40(%rbp), %rax
	movq	16(%rax), %rax
	.loc 1 113 6
	cmpq	$2, %rax
	jne	.L30
	.loc 1 113 33 discriminator 1
	movl	$113, %edx
	movabsq	$.LC0, %rax
	movq	%rax, %rsi
	movabsq	$.LC7, %rax
	movq	%rax, %rdi
	movl	$0, %eax
	movabsq	$panic, %rcx
	call	*%rcx
.LVL12:
.L30:
	.loc 1 114 22
	movq	-40(%rbp), %rax
	movl	8(%rax), %eax
	.loc 1 114 30
	movzbl	%al, %eax
	.loc 1 114 6
	cmpl	$1, %eax
	je	.L31
	.loc 1 114 54 discriminator 1
	movl	$114, %edx
	movabsq	$.LC0, %rax
	movq	%rax, %rsi
	movabsq	$.LC8, %rax
	movq	%rax, %rdi
	movl	$0, %eax
	movabsq	$panic, %rcx
	call	*%rcx
.LVL13:
.L31:
.LBB14:
	.loc 1 115 63
/APP
# 115 "mutex.c" 1
	mov %rax, gs:$24
# 0 "" 2
/NO_APP
	movq	%rax, %rbx
	.loc 1 115 6
	movq	%rbx, %rax
.LBE14:
	.loc 1 115 6
	cmpq	%rax, -24(%rbp)
	je	.L32
	.loc 1 115 17 discriminator 1
	movl	$115, %edx
	movabsq	$.LC0, %rax
	movq	%rax, %rsi
	movabsq	$.LC9, %rax
	movq	%rax, %rdi
	movl	$0, %eax
	movabsq	$panic, %rcx
	call	*%rcx
.LVL14:
.L32:
	.loc 1 117 10
	movq	-40(%rbp), %rax
	movl	12(%rax), %eax
	.loc 1 117 15
	leal	-1(%rax), %edx
	movq	-40(%rbp), %rax
	movl	%edx, 12(%rax)
	.loc 1 118 10
	movq	-40(%rbp), %rax
	movq	16(%rax), %rax
	.loc 1 118 21
	andl	$4, %eax
	.loc 1 118 6
	testq	%rax, %rax
	je	.L33
	.loc 1 118 38 discriminator 1
	movq	-40(%rbp), %rax
	movl	12(%rax), %eax
	.loc 1 118 28 discriminator 1
	testl	%eax, %eax
	je	.L33
	.loc 1 119 24
	movq	-40(%rbp), %rax
	movl	8(%rax), %eax
	.loc 1 119 42
	andl	$1024, %eax
	.loc 1 119 8
	testl	%eax, %eax
	jne	.L34
	.loc 1 119 53 discriminator 1
	movl	$119, %edx
	movabsq	$.LC0, %rax
	movq	%rax, %rsi
	movabsq	$.LC10, %rax
	movq	%rax, %rdi
	movl	$0, %eax
	movabsq	$panic, %rcx
	call	*%rcx
.LVL15:
.L34:
	.loc 1 120 16
	movq	-40(%rbp), %rax
	movl	12(%rax), %eax
	.loc 1 120 8
	cmpl	$1, %eax
	jne	.L39
	.loc 1 121 10
	movq	-40(%rbp), %rax
	movq	16(%rax), %rax
	.loc 1 121 21
	andq	$-5, %rax
	movq	%rax, %rdx
	movq	-40(%rbp), %rax
	movq	%rdx, 16(%rax)
	.loc 1 123 5
	jmp	.L39
.L33:
	.loc 1 126 16
	movq	-40(%rbp), %rax
	movl	12(%rax), %eax
	.loc 1 126 6
	testl	%eax, %eax
	je	.L37
	.loc 1 126 29 discriminator 1
	movq	-40(%rbp), %rax
	movl	12(%rax), %eax
	movl	$126, %ecx
	movabsq	$.LC0, %rdx
	movl	%eax, %esi
	movabsq	$.LC11, %rax
	movq	%rax, %rdi
	movl	$0, %eax
	movabsq	$panic, %r8
	call	*%r8
.LVL16:
.L37:
	.loc 1 127 20
	movq	-40(%rbp), %rax
	addq	$16, %rax
	.loc 1 127 3
	movl	$0, %edx
	movq	%rdx, (%rax)
.LBB15:
	.loc 1 129 79
/APP
# 129 "mutex.c" 1
	mov %rax, gs:$40
# 0 "" 2
/NO_APP
	movq	%rax, %rbx
	.loc 1 129 6
	movq	%rbx, %rax
.LBE15:
	.loc 1 129 15
	testq	%rax, %rax
	setne	%al
	.loc 1 129 7
	movzbl	%al, %eax
	.loc 1 129 6 discriminator 1
	testq	%rax, %rax
	je	.L38
	.loc 1 129 9 discriminator 1
	movq	-40(%rbp), %rax
.LBB16:
	.loc 1 129 86 discriminator 1
/APP
# 129 "mutex.c" 1
	mov %rdx, gs:$40
# 0 "" 2
/NO_APP
	movq	%rdx, %rbx
	.loc 1 129 6 discriminator 1
	movq	%rbx, %rdx
.LBE16:
	.loc 1 129 9 discriminator 1
	movq	%rax, %rsi
	movq	%rdx, %rdi
	movabsq	$lock_claim_list_remove, %rax
	call	*%rax
.LVL17:
.L38:
	.loc 1 130 3
	movabsq	$spinlock_exit, %rax
	call	*%rax
.LVL18:
	jmp	.L29
.L39:
	.loc 1 123 5
	nop
.L29:
	.loc 1 131 1
	movq	-8(%rbp), %rbx
	leave
	.cfi_restore 6
	.cfi_restore 3
	.cfi_def_cfa 7, 8
	ret
	.cfi_endproc
.LFE6:
	.size	_mtx_spin_unlock, .-_mtx_spin_unlock
.Letext0:
	.file 2 "/home/camdenpina/opt/cross/lib/gcc/x86_64-elf/14.2.0/include/stdint-gcc.h"
	.file 3 "./include/lock.h"
	.file 4 "./include/mutex.h"
	.file 5 "/home/camdenpina/opt/cross/lib/gcc/x86_64-elf/14.2.0/include/stddef.h"
	.file 6 "./include/proc.h"
	.file 7 "./include/panic.h"